target datalayout = "e-m:e-p270:32:32-p271:32:32-p272:64:64-i64:64-i128:128-f80:128-n8:16:32:64-S128"
target triple = "x86_64-pc-linux-gnu"

%struct.b2ShapeId = type { i32, i16, i16 }
%struct.b2Vec2 = type { float, float }
%struct.b2ChainShapeArray = type { ptr, i32, i32 }
%struct.b2ShapeArray = type { ptr, i32, i32 }
%struct.b2Filter = type { i64, i64, i32 }
%struct.b2Shape = type { i32, i32, i32, i32, i32, i32, float, float, float, float, float, i32, %struct.b2AABB, %struct.b2AABB, %struct.b2Vec2, i32, %struct.b2Filter, ptr, i32, %union.anon.0, i16, i8, i8, i8, i8 }
%struct.b2AABB = type { %struct.b2Vec2, %struct.b2Vec2 }
%union.anon.0 = type { %struct.b2Polygon }
%struct.b2Polygon = type { [8 x %struct.b2Vec2], [8 x %struct.b2Vec2], %struct.b2Vec2, float, i32 }
%struct.b2World = type { %struct.b2ArenaAllocator, %struct.b2BroadPhase, %struct.b2ConstraintGraph, %struct.b2IdPool, %struct.b2BodyArray, %struct.b2IdPool, %struct.b2SolverSetArray, %struct.b2IdPool, %struct.b2JointArray, %struct.b2IdPool, %struct.b2ContactArray, %struct.b2IdPool, %struct.b2IslandArray, %struct.b2IdPool, %struct.b2IdPool, %struct.b2ShapeArray, %struct.b2ChainShapeArray, %struct.b2SensorArray, %struct.b2TaskContextArray, %struct.b2SensorTaskContextArray, %struct.b2BodyMoveEventArray, %struct.b2SensorBeginTouchEventArray, %struct.b2ContactBeginTouchEventArray, [2 x %struct.b2SensorEndTouchEventArray], [2 x %struct.b2ContactEndTouchEventArray], i32, %struct.b2ContactHitEventArray, %struct.b2BitSet, %struct.b2BitSet, %struct.b2BitSet, i64, i32, %struct.b2Vec2, float, float, float, float, float, float, float, float, ptr, ptr, i16, %struct.b2Profile, ptr, ptr, ptr, ptr, i32, ptr, ptr, ptr, ptr, ptr, float, i32, i32, i16, i8, i8, i8, i8, i8, i8 }
%struct.b2ArenaAllocator = type { ptr, i32, i32, i32, i32, %struct.b2ArenaEntryArray }
%struct.b2ArenaEntryArray = type { ptr, i32, i32 }
%struct.b2BroadPhase = type { [3 x %struct.b2DynamicTree], i32, %struct.b2HashSet, %struct.b2IntArray, ptr, ptr, i32, %struct.b2AtomicInt, %struct.b2HashSet }
%struct.b2DynamicTree = type { ptr, i32, i32, i32, i32, i32, ptr, ptr, ptr, ptr, i32 }
%struct.b2IntArray = type { ptr, i32, i32 }
%struct.b2AtomicInt = type { i32 }
%struct.b2HashSet = type { ptr, i32, i32 }
%struct.b2ConstraintGraph = type { [12 x %struct.b2GraphColor] }
%struct.b2GraphColor = type { %struct.b2BitSet, %struct.b2ContactSimArray, %struct.b2JointSimArray, %union.anon }
%struct.b2ContactSimArray = type { ptr, i32, i32 }
%struct.b2JointSimArray = type { ptr, i32, i32 }
%union.anon = type { ptr }
%struct.b2BodyArray = type { ptr, i32, i32 }
%struct.b2SolverSetArray = type { ptr, i32, i32 }
%struct.b2JointArray = type { ptr, i32, i32 }
%struct.b2ContactArray = type { ptr, i32, i32 }
%struct.b2IslandArray = type { ptr, i32, i32 }
%struct.b2IdPool = type { %struct.b2IntArray, i32 }
%struct.b2SensorArray = type { ptr, i32, i32 }
%struct.b2TaskContextArray = type { ptr, i32, i32 }
%struct.b2SensorTaskContextArray = type { ptr, i32, i32 }
%struct.b2BodyMoveEventArray = type { ptr, i32, i32 }
%struct.b2SensorBeginTouchEventArray = type { ptr, i32, i32 }
%struct.b2ContactBeginTouchEventArray = type { ptr, i32, i32 }
%struct.b2SensorEndTouchEventArray = type { ptr, i32, i32 }
%struct.b2ContactEndTouchEventArray = type { ptr, i32, i32 }
%struct.b2ContactHitEventArray = type { ptr, i32, i32 }
%struct.b2BitSet = type { ptr, i32, i32 }
%struct.b2Profile = type { float, float, float, float, float, float, float, float, float, float, float, float, float, float, float, float, float, float, float, float, float, float }
%struct.b2MassData = type { float, %struct.b2Vec2, float }

; Function Attrs: inlinehint nounwind uwtable
define internal ptr @b2ShapeArray_Get(ptr noundef %0, i32 noundef %1) #7 {
  %3 = alloca ptr, align 8
  %4 = alloca i32, align 4
  store ptr %0, ptr %3, align 8, !tbaa !12
  store i32 %1, ptr %4, align 4, !tbaa !3
  %5 = load ptr, ptr %3, align 8, !tbaa !12
  %6 = getelementptr inbounds nuw %struct.b2ShapeArray, ptr %5, i32 0, i32 0
  %7 = load ptr, ptr %6, align 8, !tbaa !14
  %8 = load i32, ptr %4, align 4, !tbaa !3
  %9 = sext i32 %8 to i64
  %10 = getelementptr inbounds %struct.b2Shape, ptr %7, i64 %9
  ret ptr %10
}

; Function Attrs: nounwind uwtable
define hidden { <2 x float>, <2 x float> } @b2ComputeShapeMass(ptr noundef %0) #3 {
  %2 = alloca %struct.b2MassData, align 4
  %3 = alloca ptr, align 8
  store ptr %0, ptr %3, align 8, !tbaa !34
  %4 = load ptr, ptr %3, align 8, !tbaa !34
  %5 = getelementptr inbounds nuw %struct.b2Shape, ptr %4, i32 0, i32 5
  %6 = load i32, ptr %5, align 4, !tbaa !201
  switch i32 %6, label %40 [
    i32 1, label %7
    i32 0, label %18
    i32 3, label %29
  ]

7:                                                ; preds = %1
  %8 = load ptr, ptr %3, align 8, !tbaa !34
  %9 = getelementptr inbounds nuw %struct.b2Shape, ptr %8, i32 0, i32 19
  %10 = load ptr, ptr %3, align 8, !tbaa !34
  %11 = getelementptr inbounds nuw %struct.b2Shape, ptr %10, i32 0, i32 6
  %12 = load float, ptr %11, align 8, !tbaa !203
  %13 = call { <2 x float>, <2 x float> } @b2ComputeCapsuleMass(ptr noundef %9, float noundef %12)
  %14 = getelementptr inbounds nuw { <2 x float>, <2 x float> }, ptr %2, i32 0, i32 0
  %15 = extractvalue { <2 x float>, <2 x float> } %13, 0
  store <2 x float> %15, ptr %14, align 4
  %16 = getelementptr inbounds nuw { <2 x float>, <2 x float> }, ptr %2, i32 0, i32 1
  %17 = extractvalue { <2 x float>, <2 x float> } %13, 1
  store <2 x float> %17, ptr %16, align 4
  br label %44

18:                                               ; preds = %1
  %19 = load ptr, ptr %3, align 8, !tbaa !34
  %20 = getelementptr inbounds nuw %struct.b2Shape, ptr %19, i32 0, i32 19
  %21 = load ptr, ptr %3, align 8, !tbaa !34
  %22 = getelementptr inbounds nuw %struct.b2Shape, ptr %21, i32 0, i32 6
  %23 = load float, ptr %22, align 8, !tbaa !203
  %24 = call { <2 x float>, <2 x float> } @b2ComputeCircleMass(ptr noundef %20, float noundef %23)
  %25 = getelementptr inbounds nuw { <2 x float>, <2 x float> }, ptr %2, i32 0, i32 0
  %26 = extractvalue { <2 x float>, <2 x float> } %24, 0
  store <2 x float> %26, ptr %25, align 4
  %27 = getelementptr inbounds nuw { <2 x float>, <2 x float> }, ptr %2, i32 0, i32 1
  %28 = extractvalue { <2 x float>, <2 x float> } %24, 1
  store <2 x float> %28, ptr %27, align 4
  br label %44

29:                                               ; preds = %1
  %30 = load ptr, ptr %3, align 8, !tbaa !34
  %31 = getelementptr inbounds nuw %struct.b2Shape, ptr %30, i32 0, i32 19
  %32 = load ptr, ptr %3, align 8, !tbaa !34
  %33 = getelementptr inbounds nuw %struct.b2Shape, ptr %32, i32 0, i32 6
  %34 = load float, ptr %33, align 8, !tbaa !203
  %35 = call { <2 x float>, <2 x float> } @b2ComputePolygonMass(ptr noundef %31, float noundef %34)
  %36 = getelementptr inbounds nuw { <2 x float>, <2 x float> }, ptr %2, i32 0, i32 0
  %37 = extractvalue { <2 x float>, <2 x float> } %35, 0
  store <2 x float> %37, ptr %36, align 4
  %38 = getelementptr inbounds nuw { <2 x float>, <2 x float> }, ptr %2, i32 0, i32 1
  %39 = extractvalue { <2 x float>, <2 x float> } %35, 1
  store <2 x float> %39, ptr %38, align 4
  br label %44

40:                                               ; preds = %1
  %41 = getelementptr inbounds nuw %struct.b2MassData, ptr %2, i32 0, i32 0
  store float 0.000000e+00, ptr %41, align 4, !tbaa !234
  %42 = getelementptr inbounds nuw %struct.b2MassData, ptr %2, i32 0, i32 1
  call void @llvm.memset.p0.i64(ptr align 4 %42, i8 0, i64 8, i1 false)
  %43 = getelementptr inbounds nuw %struct.b2MassData, ptr %2, i32 0, i32 2
  store float 0.000000e+00, ptr %43, align 4, !tbaa !236
  br label %44

44:                                               ; preds = %40, %29, %18, %7
  %45 = load { <2 x float>, <2 x float> }, ptr %2, align 4
  ret { <2 x float>, <2 x float> } %45
}

; Function Attrs: nounwind uwtable
define internal ptr @b2GetShape(ptr noundef %0, i64 %1) #0 {
  %3 = alloca %struct.b2ShapeId, align 4
  %4 = alloca ptr, align 8
  %5 = alloca i32, align 4
  %6 = alloca ptr, align 8
  store i64 %1, ptr %3, align 4
  store ptr %0, ptr %4, align 8, !tbaa !26
  call void @llvm.lifetime.start.p0(i64 4, ptr %5) #9
  %7 = getelementptr inbounds nuw %struct.b2ShapeId, ptr %3, i32 0, i32 0
  %8 = load i32, ptr %7, align 4, !tbaa !28
  %9 = sub nsw i32 %8, 1
  store i32 %9, ptr %5, align 4, !tbaa !3
  call void @llvm.lifetime.start.p0(i64 8, ptr %6) #9
  %10 = load ptr, ptr %4, align 8, !tbaa !26
  %11 = getelementptr inbounds nuw %struct.b2World, ptr %10, i32 0, i32 15
  %12 = load i32, ptr %5, align 4, !tbaa !3
  %13 = call ptr @b2ShapeArray_Get(ptr noundef %11, i32 noundef %12)
  store ptr %13, ptr %6, align 8, !tbaa !34
  %14 = load ptr, ptr %6, align 8, !tbaa !34
  call void @llvm.lifetime.end.p0(i64 8, ptr %6) #9
  call void @llvm.lifetime.end.p0(i64 4, ptr %5) #9
  ret ptr %14
}

; Function Attrs: nounwind uwtable
define { <2 x float>, <2 x float> } @b2Shape_GetMassData(i64 %0) #3 {
  %2 = alloca %struct.b2MassData, align 4
  %3 = alloca %struct.b2ShapeId, align 4
  %4 = alloca ptr, align 8
  %5 = alloca i32, align 4
  %6 = alloca ptr, align 8
  store i64 %0, ptr %3, align 4
  call void @llvm.lifetime.start.p0(i64 8, ptr %4) #9
  %7 = getelementptr inbounds nuw %struct.b2ShapeId, ptr %3, i32 0, i32 1
  %8 = load i16, ptr %7, align 4, !tbaa !30
  %9 = zext i16 %8 to i32
  %10 = call ptr @b2GetWorld(i32 noundef %9)
  store ptr %10, ptr %4, align 8, !tbaa !26
  %11 = load ptr, ptr %4, align 8, !tbaa !26
  %12 = icmp eq ptr %11, null
  br i1 %12, label %13, label %17

13:                                               ; preds = %1
  %14 = getelementptr inbounds nuw %struct.b2MassData, ptr %2, i32 0, i32 0
  store float 0.000000e+00, ptr %14, align 4, !tbaa !234
  %15 = getelementptr inbounds nuw %struct.b2MassData, ptr %2, i32 0, i32 1
  call void @llvm.memset.p0.i64(ptr align 4 %15, i8 0, i64 8, i1 false)
  %16 = getelementptr inbounds nuw %struct.b2MassData, ptr %2, i32 0, i32 2
  store float 0.000000e+00, ptr %16, align 4, !tbaa !236
  store i32 1, ptr %5, align 4
  br label %27

17:                                               ; preds = %1
  call void @llvm.lifetime.start.p0(i64 8, ptr %6) #9
  %18 = load ptr, ptr %4, align 8, !tbaa !26
  %19 = load i64, ptr %3, align 4
  %20 = call ptr @b2GetShape(ptr noundef %18, i64 %19)
  store ptr %20, ptr %6, align 8, !tbaa !34
  %21 = load ptr, ptr %6, align 8, !tbaa !34
  %22 = call { <2 x float>, <2 x float> } @b2ComputeShapeMass(ptr noundef %21)
  %23 = getelementptr inbounds nuw { <2 x float>, <2 x float> }, ptr %2, i32 0, i32 0
  %24 = extractvalue { <2 x float>, <2 x float> } %22, 0
  store <2 x float> %24, ptr %23, align 4
  %25 = getelementptr inbounds nuw { <2 x float>, <2 x float> }, ptr %2, i32 0, i32 1
  %26 = extractvalue { <2 x float>, <2 x float> } %22, 1
  store <2 x float> %26, ptr %25, align 4
  store i32 1, ptr %5, align 4
  call void @llvm.lifetime.end.p0(i64 8, ptr %6) #9
  br label %27

27:                                               ; preds = %17, %13
  call void @llvm.lifetime.end.p0(i64 8, ptr %4) #9
  %28 = load { <2 x float>, <2 x float> }, ptr %2, align 4
  ret { <2 x float>, <2 x float> } %28
}