; Function Attrs: nounwind uwtable
define { <2 x float>, <2 x float> } @b2Shape_GetMassData(i64 %0) local_unnamed_addr #3 {
  %.sroa.2.0.extract.shift = lshr i64 %0, 32
  %2 = trunc nuw i64 %.sroa.2.0.extract.shift to i32
  %3 = and i32 %2, 65535
  %4 = tail call ptr @b2GetWorld(i32 noundef %3) #10
  %5 = icmp eq ptr %4, null
  br i1 %5, label %b2ComputeShapeMass.exit, label %6

6:                                                ; preds = %1
  %7 = getelementptr i8, ptr %4, i64 1256
  %.val = load ptr, ptr %7, align 8, !tbaa !14
  %8 = shl i64 %0, 32
  %sext.i = add i64 %8, -4294967296
  %9 = ashr exact i64 %sext.i, 32
  %10 = getelementptr inbounds %struct.b2Shape, ptr %.val, i64 %9
  %11 = getelementptr inbounds nuw i8, ptr %10, i64 20
  %12 = load i32, ptr %11, align 4, !tbaa !171
  switch i32 %12, label %b2ComputeShapeMass.exit [
    i32 1, label %13
    i32 0, label %20
    i32 3, label %27
  ]

13:                                               ; preds = %6
  %14 = getelementptr inbounds nuw i8, ptr %10, i64 132
  %15 = getelementptr inbounds nuw i8, ptr %10, i64 24
  %16 = load float, ptr %15, align 8, !tbaa !173
  %17 = tail call { <2 x float>, <2 x float> } @b2ComputeCapsuleMass(ptr noundef nonnull %14, float noundef %16) #10
  %18 = extractvalue { <2 x float>, <2 x float> } %17, 0
  %19 = extractvalue { <2 x float>, <2 x float> } %17, 1
  br label %b2ComputeShapeMass.exit

20:                                               ; preds = %6
  %21 = getelementptr inbounds nuw i8, ptr %10, i64 132
  %22 = getelementptr inbounds nuw i8, ptr %10, i64 24
  %23 = load float, ptr %22, align 8, !tbaa !173
  %24 = tail call { <2 x float>, <2 x float> } @b2ComputeCircleMass(ptr noundef nonnull %21, float noundef %23) #10
  %25 = extractvalue { <2 x float>, <2 x float> } %24, 0
  %26 = extractvalue { <2 x float>, <2 x float> } %24, 1
  br label %b2ComputeShapeMass.exit

27:                                               ; preds = %6
  %28 = getelementptr inbounds nuw i8, ptr %10, i64 132
  %29 = getelementptr inbounds nuw i8, ptr %10, i64 24
  %30 = load float, ptr %29, align 8, !tbaa !173
  %31 = tail call { <2 x float>, <2 x float> } @b2ComputePolygonMass(ptr noundef nonnull %28, float noundef %30) #10
  %32 = extractvalue { <2 x float>, <2 x float> } %31, 0
  %33 = extractvalue { <2 x float>, <2 x float> } %31, 1
  br label %b2ComputeShapeMass.exit

b2ComputeShapeMass.exit:                          ; preds = %27, %20, %13, %6, %1
  %.sroa.03.0 = phi <2 x float> [ zeroinitializer, %1 ], [ %32, %27 ], [ %25, %20 ], [ %18, %13 ], [ zeroinitializer, %6 ]
  %.sroa.4.0 = phi <2 x float> [ zeroinitializer, %1 ], [ %33, %27 ], [ %26, %20 ], [ %19, %13 ], [ zeroinitializer, %6 ]
  %.fca.0.insert = insertvalue { <2 x float>, <2 x float> } poison, <2 x float> %.sroa.03.0, 0
  %.fca.1.insert = insertvalue { <2 x float>, <2 x float> } %.fca.0.insert, <2 x float> %.sroa.4.0, 1
  ret { <2 x float>, <2 x float> } %.fca.1.insert
}